; Function Attrs: mustprogress uwtable
define hidden void @_ZN7datalog7context9get_proofEv(ptr noalias sret(%class.obj_ref.11) align 8 %agg.result, ptr nocapture noundef nonnull align 8 dereferenceable(3556) %this) local_unnamed_addr #3 align 2 {
entry:
  tail call void @_ZN7datalog7context13ensure_engineEP4expr(ptr noundef nonnull align 8 dereferenceable(3556) %this, ptr noundef null)
  %m_engine = getelementptr inbounds i8, ptr %this, i64 3504
  %0 = load ptr, ptr %m_engine, align 8
  %vtable = load ptr, ptr %0, align 8
  %vfn = getelementptr inbounds i8, ptr %vtable, i64 144
  %1 = load ptr, ptr %vfn, align 8
  tail call void %1(ptr sret(%class.obj_ref.11) align 8 %agg.result, ptr noundef nonnull align 8 dereferenceable(48) %0)
  ret void
}